; Function Attrs: mustprogress nounwind uwtable
define dso_local void @_ZN5clang14TextNodeDumper19VisitHLSLBufferDeclEPKNS_14HLSLBufferDeclE(ptr nocapture noundef nonnull readonly align 8 dereferenceable(1168) %0, ptr nocapture noundef readonly %1) local_unnamed_addr #0 align 2 {
  %3 = getelementptr inbounds nuw i8, ptr %1, i64 92
  %4 = load i8, ptr %3, align 4
  %5 = trunc i8 %4 to i1
  %6 = getelementptr inbounds nuw i8, ptr %0, i64 1096
  %7 = load ptr, ptr %6, align 8
  %8 = getelementptr inbounds nuw i8, ptr %7, i64 24
  %9 = load ptr, ptr %8, align 8
  %10 = getelementptr inbounds nuw i8, ptr %7, i64 32
  %11 = load ptr, ptr %10, align 8
  %12 = ptrtoint ptr %9 to i64
  %13 = ptrtoint ptr %11 to i64
  %14 = sub i64 %12, %13
  %15 = icmp ult i64 %14, 8
  br i1 %5, label %16, label %22

16:                                               ; preds = %2
  br i1 %15, label %17, label %19

17:                                               ; preds = %16
  %18 = tail call noundef nonnull align 8 dereferenceable(48) ptr @_ZN4llvm11raw_ostream5writeEPKcm(ptr noundef nonnull align 8 dereferenceable(48) %7, ptr noundef nonnull @.str.790, i64 noundef 8) #18
  br label %_ZN4llvm11raw_ostreamlsEPKc.exit

19:                                               ; preds = %16
  store i64 8243107283213640480, ptr %11, align 1
  %20 = load ptr, ptr %10, align 8
  %21 = getelementptr inbounds i8, ptr %20, i64 8
  store ptr %21, ptr %10, align 8
  br label %_ZN4llvm11raw_ostreamlsEPKc.exit

22:                                               ; preds = %2
  br i1 %15, label %23, label %25

23:                                               ; preds = %22
  %24 = tail call noundef nonnull align 8 dereferenceable(48) ptr @_ZN4llvm11raw_ostream5writeEPKcm(ptr noundef nonnull align 8 dereferenceable(48) %7, ptr noundef nonnull @.str.791, i64 noundef 8) #18
  br label %_ZN4llvm11raw_ostreamlsEPKc.exit

25:                                               ; preds = %22
  store i64 8243107283213644832, ptr %11, align 1
  %26 = load ptr, ptr %10, align 8
  %27 = getelementptr inbounds i8, ptr %26, i64 8
  store ptr %27, ptr %10, align 8
  br label %_ZN4llvm11raw_ostreamlsEPKc.exit

_ZN4llvm11raw_ostreamlsEPKc.exit:                 ; preds = %25, %23, %19, %17
  %28 = getelementptr inbounds nuw i8, ptr %1, i64 40
  %.sroa.0.0.copyload.i.i = load i64, ptr %28, align 8
  %.not.i = icmp eq i64 %.sroa.0.0.copyload.i.i, 0
  br i1 %.not.i, label %_ZN5clang14TextNodeDumper8dumpNameEPKNS_9NamedDeclE.exit, label %29

29:                                               ; preds = %_ZN4llvm11raw_ostreamlsEPKc.exit
  %30 = getelementptr inbounds nuw i8, ptr %0, i64 1096
  %31 = load ptr, ptr %30, align 8
  %32 = getelementptr inbounds nuw i8, ptr %0, i64 1104
  %33 = load i8, ptr %32, align 8
  %34 = trunc i8 %33 to i1
  br i1 %34, label %35, label %_ZN5clang10ColorScopeC2ERN4llvm11raw_ostreamEbNS_13TerminalColorE.exit.i

35:                                               ; preds = %29
  %36 = load ptr, ptr %31, align 8
  %37 = getelementptr inbounds i8, ptr %36, i64 24
  %38 = load ptr, ptr %37, align 8
  %39 = tail call noundef nonnull align 8 dereferenceable(48) ptr %38(ptr noundef nonnull align 8 dereferenceable(48) %31, i32 noundef 6, i1 noundef zeroext true, i1 noundef zeroext false) #18
  %.pre.i = load ptr, ptr %30, align 8
  br label %_ZN5clang10ColorScopeC2ERN4llvm11raw_ostreamEbNS_13TerminalColorE.exit.i

_ZN5clang10ColorScopeC2ERN4llvm11raw_ostreamEbNS_13TerminalColorE.exit.i: ; preds = %35, %29
  %40 = phi ptr [ %31, %29 ], [ %.pre.i, %35 ]
  %41 = getelementptr inbounds nuw i8, ptr %40, i64 32
  %42 = load ptr, ptr %41, align 8
  %43 = getelementptr inbounds nuw i8, ptr %40, i64 24
  %44 = load ptr, ptr %43, align 8
  %.not.i.i = icmp ult ptr %42, %44
  br i1 %.not.i.i, label %47, label %45

45:                                               ; preds = %_ZN5clang10ColorScopeC2ERN4llvm11raw_ostreamEbNS_13TerminalColorE.exit.i
  %46 = tail call noundef nonnull align 8 dereferenceable(48) ptr @_ZN4llvm11raw_ostream5writeEh(ptr noundef nonnull align 8 dereferenceable(48) %40, i8 noundef zeroext 32) #18
  br label %_ZN4llvm11raw_ostreamlsEc.exit.i

47:                                               ; preds = %_ZN5clang10ColorScopeC2ERN4llvm11raw_ostreamEbNS_13TerminalColorE.exit.i
  %48 = getelementptr inbounds i8, ptr %42, i64 1
  store ptr %48, ptr %41, align 8
  store i8 32, ptr %42, align 1
  br label %_ZN4llvm11raw_ostreamlsEc.exit.i

_ZN4llvm11raw_ostreamlsEc.exit.i:                 ; preds = %47, %45
  %.0.i.i6 = phi ptr [ %46, %45 ], [ %40, %47 ]
  %.sroa.0.0.copyload.i4.i = load i64, ptr %28, align 8
  %49 = tail call noundef nonnull align 8 dereferenceable(48) ptr @_ZN5clanglsERN4llvm11raw_ostreamENS_15DeclarationNameE(ptr noundef nonnull align 8 dereferenceable(48) %.0.i.i6, i64 %.sroa.0.0.copyload.i4.i) #18
  br i1 %34, label %50, label %_ZN5clang14TextNodeDumper8dumpNameEPKNS_9NamedDeclE.exit

50:                                               ; preds = %_ZN4llvm11raw_ostreamlsEc.exit.i
  %51 = load ptr, ptr %31, align 8
  %52 = getelementptr inbounds i8, ptr %51, i64 32
  %53 = load ptr, ptr %52, align 8
  %54 = tail call noundef nonnull align 8 dereferenceable(48) ptr %53(ptr noundef nonnull align 8 dereferenceable(48) %31) #18
  br label %_ZN5clang14TextNodeDumper8dumpNameEPKNS_9NamedDeclE.exit

_ZN5clang14TextNodeDumper8dumpNameEPKNS_9NamedDeclE.exit: ; preds = %_ZN4llvm11raw_ostreamlsEPKc.exit, %_ZN4llvm11raw_ostreamlsEc.exit.i, %50
  ret void
}